target datalayout = "e-m:e-p270:32:32-p271:32:32-p272:64:64-i64:64-i128:128-f80:128-n8:16:32:64-S128"
target triple = "x86_64-unknown-linux-gnu"

%"class.grpc_core::Activity::ScopedActivity" = type { ptr }

@_ZN9grpc_core8Activity19g_current_activity_E = external thread_local global ptr, align 8

; Function Attrs: uwtable
define linkonce_odr hidden noundef ptr @_ZTWN9grpc_core8Activity19g_current_activity_E() #11 comdat {
  br i1 icmp ne (ptr @_ZTHN9grpc_core8Activity19g_current_activity_E, ptr null), label %1, label %2

1:                                                ; preds = %0
  call void @_ZTHN9grpc_core8Activity19g_current_activity_E()
  br label %2

2:                                                ; preds = %1, %0
  %3 = call align 8 ptr @llvm.threadlocal.address.p0(ptr align 8 @_ZN9grpc_core8Activity19g_current_activity_E)
  ret ptr %3
}

; Function Attrs: mustprogress nounwind uwtable
define linkonce_odr void @_ZN9grpc_core8Activity14ScopedActivityD2Ev(ptr noundef nonnull align 8 dereferenceable(8) %this) unnamed_addr #4 comdat align 2 {
entry:
  %this.addr = alloca ptr, align 8
  store ptr %this, ptr %this.addr, align 8
  %this1 = load ptr, ptr %this.addr, align 8
  %prior_activity_ = getelementptr inbounds %"class.grpc_core::Activity::ScopedActivity", ptr %this1, i32 0, i32 0
  %0 = load ptr, ptr %prior_activity_, align 8
  %1 = call ptr @_ZTWN9grpc_core8Activity19g_current_activity_E()
  store ptr %0, ptr %1, align 8
  ret void
}

; Function Attrs: mustprogress uwtable
define linkonce_odr void @_ZN9grpc_core8Activity14ScopedActivityC2EPS0_(ptr noundef nonnull align 8 dereferenceable(8) %this, ptr noundef %activity) unnamed_addr #5 comdat align 2 {
entry:
  %this.addr = alloca ptr, align 8
  %activity.addr = alloca ptr, align 8
  store ptr %this, ptr %this.addr, align 8
  store ptr %activity, ptr %activity.addr, align 8
  %this1 = load ptr, ptr %this.addr, align 8
  %prior_activity_ = getelementptr inbounds %"class.grpc_core::Activity::ScopedActivity", ptr %this1, i32 0, i32 0
  %0 = call ptr @_ZTWN9grpc_core8Activity19g_current_activity_E()
  %1 = load ptr, ptr %0, align 8
  store ptr %1, ptr %prior_activity_, align 8
  %2 = load ptr, ptr %activity.addr, align 8
  %3 = call ptr @_ZTWN9grpc_core8Activity19g_current_activity_E()
  store ptr %2, ptr %3, align 8
  ret void
}

; Function Attrs: mustprogress uwtable
define void @_ZN9grpc_core5Party11PartyIsOverEv(ptr noundef nonnull align 8 dereferenceable(168) %this) #5 align 2 personality ptr @__gxx_personality_v0 {
entry:
  %this.addr = alloca ptr, align 8
  %activity = alloca %"class.grpc_core::Activity::ScopedActivity", align 8
  %exn.slot = alloca ptr, align 8
  %ehselector.slot = alloca i32, align 4
  store ptr %this, ptr %this.addr, align 8
  %this1 = load ptr, ptr %this.addr, align 8
  call void @_ZN9grpc_core8Activity14ScopedActivityC2EPS0_(ptr noundef nonnull align 8 dereferenceable(8) %activity, ptr noundef %this1)
  %vtable = load ptr, ptr %this1, align 8
  %vfn = getelementptr inbounds ptr, ptr %vtable, i64 10
  %0 = load ptr, ptr %vfn, align 8
  invoke void %0(ptr noundef nonnull align 8 dereferenceable(168) %this1)
          to label %invoke.cont unwind label %lpad

invoke.cont:                                      ; preds = %entry
  call void @_ZN9grpc_core8Activity14ScopedActivityD2Ev(ptr noundef nonnull align 8 dereferenceable(8) %activity) #3
  ret void

lpad:                                             ; preds = %entry
  %1 = landingpad { ptr, i32 }
          cleanup
  %2 = extractvalue { ptr, i32 } %1, 0
  store ptr %2, ptr %exn.slot, align 8
  %3 = extractvalue { ptr, i32 } %1, 1
  store i32 %3, ptr %ehselector.slot, align 4
  call void @_ZN9grpc_core8Activity14ScopedActivityD2Ev(ptr noundef nonnull align 8 dereferenceable(8) %activity) #3
  br label %eh.resume

eh.resume:                                        ; preds = %lpad
  %exn = load ptr, ptr %exn.slot, align 8
  %sel = load i32, ptr %ehselector.slot, align 4
  %lpad.val = insertvalue { ptr, i32 } poison, ptr %exn, 0
  %lpad.val2 = insertvalue { ptr, i32 } %lpad.val, i32 %sel, 1
  resume { ptr, i32 } %lpad.val2
}