; Function Attrs: uwtable
define void @_ZN9grpc_core5Party11PartyIsOverEv(ptr noundef nonnull align 8 dereferenceable(168) %this) local_unnamed_addr #13 align 2 personality ptr @__gxx_personality_v0 {
entry:
  br i1 icmp ne (ptr @_ZTHN9grpc_core8Activity19g_current_activity_E, ptr null), label %0, label %_ZTWN9grpc_core8Activity19g_current_activity_E.exit.i

0:                                                ; preds = %entry
  tail call void @_ZTHN9grpc_core8Activity19g_current_activity_E()
  br label %_ZTWN9grpc_core8Activity19g_current_activity_E.exit.i

_ZTWN9grpc_core8Activity19g_current_activity_E.exit.i: ; preds = %0, %entry
  %1 = tail call noundef align 8 ptr @llvm.threadlocal.address.p0(ptr align 8 @_ZN9grpc_core8Activity19g_current_activity_E)
  %2 = load ptr, ptr %1, align 8
  br i1 icmp ne (ptr @_ZTHN9grpc_core8Activity19g_current_activity_E, ptr null), label %3, label %_ZN9grpc_core8Activity14ScopedActivityC2EPS0_.exit

3:                                                ; preds = %_ZTWN9grpc_core8Activity19g_current_activity_E.exit.i
  tail call void @_ZTHN9grpc_core8Activity19g_current_activity_E()
  br label %_ZN9grpc_core8Activity14ScopedActivityC2EPS0_.exit

_ZN9grpc_core8Activity14ScopedActivityC2EPS0_.exit: ; preds = %_ZTWN9grpc_core8Activity19g_current_activity_E.exit.i, %3
  store ptr %this, ptr %1, align 8
  %vtable = load ptr, ptr %this, align 8
  %vfn = getelementptr inbounds i8, ptr %vtable, i64 80
  %4 = load ptr, ptr %vfn, align 8
  invoke void %4(ptr noundef nonnull align 8 dereferenceable(168) %this)
          to label %invoke.cont unwind label %lpad

invoke.cont:                                      ; preds = %_ZN9grpc_core8Activity14ScopedActivityC2EPS0_.exit
  br i1 icmp ne (ptr @_ZTHN9grpc_core8Activity19g_current_activity_E, ptr null), label %5, label %_ZN9grpc_core8Activity14ScopedActivityD2Ev.exit

5:                                                ; preds = %invoke.cont
  tail call void @_ZTHN9grpc_core8Activity19g_current_activity_E() #26
  br label %_ZN9grpc_core8Activity14ScopedActivityD2Ev.exit

_ZN9grpc_core8Activity14ScopedActivityD2Ev.exit:  ; preds = %invoke.cont, %5
  store ptr %2, ptr %1, align 8
  ret void

lpad:                                             ; preds = %_ZN9grpc_core8Activity14ScopedActivityC2EPS0_.exit
  %6 = landingpad { ptr, i32 }
          cleanup
  br i1 icmp ne (ptr @_ZTHN9grpc_core8Activity19g_current_activity_E, ptr null), label %7, label %_ZN9grpc_core8Activity14ScopedActivityD2Ev.exit3

7:                                                ; preds = %lpad
  tail call void @_ZTHN9grpc_core8Activity19g_current_activity_E() #26
  br label %_ZN9grpc_core8Activity14ScopedActivityD2Ev.exit3

_ZN9grpc_core8Activity14ScopedActivityD2Ev.exit3: ; preds = %lpad, %7
  store ptr %2, ptr %1, align 8
  resume { ptr, i32 } %6
}